; ModuleID = '45/1438.c'
source_filename = "45/1438.c"
target datalayout = "e-m:e-p270:32:32-p271:32:32-p272:64:64-i64:64-f80:128-n8:16:32:64-S128"
target triple = "x86_64-pc-linux-gnu"

@.str = private unnamed_addr constant [6 x i8] c"%s %s\00", align 1
@.str.1 = private unnamed_addr constant [3 x i8] c"%d\00", align 1

; Function Attrs: noinline nounwind uwtable
define dso_local i32 @main() #0 {
  %1 = alloca i32, align 4
  %2 = alloca [51 x i8], align 16
  %3 = alloca [51 x i8], align 16
  %4 = alloca i32, align 4
  %5 = alloca i32, align 4
  %6 = alloca i32, align 4
  %7 = alloca i32, align 4
  %8 = alloca i32, align 4
  %9 = alloca i32, align 4
  store i32 0, i32* %1, align 4
  %10 = bitcast [51 x i8]* %2 to i8*
  call void @llvm.memset.p0i8.i64(i8* align 16 %10, i8 0, i64 51, i1 false)
  %11 = bitcast [51 x i8]* %3 to i8*
  call void @llvm.memset.p0i8.i64(i8* align 16 %11, i8 0, i64 51, i1 false)
  %12 = getelementptr inbounds [51 x i8], [51 x i8]* %2, i64 0, i64 0
  %13 = getelementptr inbounds [51 x i8], [51 x i8]* %3, i64 0, i64 0
  %14 = call i32 (i8*, ...) @__isoc99_scanf(i8* getelementptr inbounds ([6 x i8], [6 x i8]* @.str, i64 0, i64 0), i8* %12, i8* %13)
  %15 = getelementptr inbounds [51 x i8], [51 x i8]* %2, i64 0, i64 0
  %16 = call i64 @strlen(i8* %15) #4
  %17 = trunc i64 %16 to i32
  store i32 %17, i32* %4, align 4
  %18 = getelementptr inbounds [51 x i8], [51 x i8]* %3, i64 0, i64 0
  %19 = call i64 @strlen(i8* %18) #4
  %20 = trunc i64 %19 to i32
  store i32 %20, i32* %5, align 4
  store i32 0, i32* %9, align 4
  store i32 0, i32* %6, align 4
  br label %21

21:                                               ; preds = %63, %0
  %22 = load i32, i32* %6, align 4
  %23 = load i32, i32* %5, align 4
  %24 = load i32, i32* %4, align 4
  %25 = sub nsw i32 %23, %24
  %26 = icmp sle i32 %22, %25
  br i1 %26, label %27, label %66

27:                                               ; preds = %21
  store i32 0, i32* %8, align 4
  %28 = load i32, i32* %6, align 4
  store i32 %28, i32* %7, align 4
  br label %29

29:                                               ; preds = %53, %27
  %30 = load i32, i32* %7, align 4
  %31 = load i32, i32* %6, align 4
  %32 = load i32, i32* %4, align 4
  %33 = add nsw i32 %31, %32
  %34 = icmp slt i32 %30, %33
  br i1 %34, label %35, label %56

35:                                               ; preds = %29
  %36 = load i32, i32* %7, align 4
  %37 = sext i32 %36 to i64
  %38 = getelementptr inbounds [51 x i8], [51 x i8]* %3, i64 0, i64 %37
  %39 = load i8, i8* %38, align 1
  %40 = sext i8 %39 to i32
  %41 = load i32, i32* %7, align 4
  %42 = load i32, i32* %6, align 4
  %43 = sub nsw i32 %41, %42
  %44 = sext i32 %43 to i64
  %45 = getelementptr inbounds [51 x i8], [51 x i8]* %2, i64 0, i64 %44
  %46 = load i8, i8* %45, align 1
  %47 = sext i8 %46 to i32
  %48 = icmp eq i32 %40, %47
  br i1 %48, label %49, label %52

49:                                               ; preds = %35
  %50 = load i32, i32* %8, align 4
  %51 = add nsw i32 %50, 1
  store i32 %51, i32* %8, align 4
  br label %52

52:                                               ; preds = %49, %35
  br label %53

53:                                               ; preds = %52
  %54 = load i32, i32* %7, align 4
  %55 = add nsw i32 %54, 1
  store i32 %55, i32* %7, align 4
  br label %29

56:                                               ; preds = %29
  %57 = load i32, i32* %8, align 4
  %58 = load i32, i32* %4, align 4
  %59 = icmp eq i32 %57, %58
  br i1 %59, label %60, label %62

60:                                               ; preds = %56
  %61 = load i32, i32* %6, align 4
  store i32 %61, i32* %9, align 4
  br label %66

62:                                               ; preds = %56
  br label %63

63:                                               ; preds = %62
  %64 = load i32, i32* %6, align 4
  %65 = add nsw i32 %64, 1
  store i32 %65, i32* %6, align 4
  br label %21

66:                                               ; preds = %60, %21
  %67 = load i32, i32* %9, align 4
  %68 = call i32 (i8*, ...) @printf(i8* getelementptr inbounds ([3 x i8], [3 x i8]* @.str.1, i64 0, i64 0), i32 %67)
  ret i32 0
}

; Function Attrs: argmemonly nounwind willreturn
declare void @llvm.memset.p0i8.i64(i8* nocapture writeonly, i8, i64, i1 immarg) #1

declare dso_local i32 @__isoc99_scanf(i8*, ...) #2

; Function Attrs: nounwind readonly
declare dso_local i64 @strlen(i8*) #3

declare dso_local i32 @printf(i8*, ...) #2


!llvm.module.flags = !{!0}
!llvm.ident = !{!1}

!0 = !{i32 1, !"wchar_size", i32 4}
!1 = !{!"clang version 10.0.0-4ubuntu1 "}
